target datalayout = "e-m:e-p270:32:32-p271:32:32-p272:64:64-i64:64-i128:128-f80:128-n8:16:32:64-S128"
target triple = "x86_64-pc-linux-gnu"

%"class.std::__cxx11::basic_string" = type { %"struct.std::__cxx11::basic_string<char>::_Alloc_hider", i64, %union.anon }
%"struct.std::__cxx11::basic_string<char>::_Alloc_hider" = type { ptr }
%union.anon = type { i64, [8 x i8] }
%"struct.faiss::OperatingPoints" = type { %"class.std::vector.8", %"class.std::vector.8" }
%"class.std::vector.8" = type { %"struct.std::_Vector_base.9" }
%"struct.std::_Vector_base.9" = type { %"struct.std::_Vector_base<faiss::OperatingPoint, std::allocator<faiss::OperatingPoint>>::_Vector_impl" }
%"struct.std::_Vector_base<faiss::OperatingPoint, std::allocator<faiss::OperatingPoint>>::_Vector_impl" = type { %"struct.std::_Vector_base<faiss::OperatingPoint, std::allocator<faiss::OperatingPoint>>::_Vector_impl_data" }
%"struct.std::_Vector_base<faiss::OperatingPoint, std::allocator<faiss::OperatingPoint>>::_Vector_impl_data" = type { ptr, ptr, ptr }
%"struct.faiss::OperatingPoint" = type { double, double, %"class.std::__cxx11::basic_string", i64 }

; Function Attrs: mustprogress uwtable
define linkonce_odr void @_ZStplIcSt11char_traitsIcESaIcEENSt7__cxx1112basic_stringIT_T0_T1_EERKS8_SA_(ptr dead_on_unwind noalias writable sret(%"class.std::__cxx11::basic_string") align 8 %0, ptr noundef nonnull align 8 dereferenceable(32) %1, ptr noundef nonnull align 8 dereferenceable(32) %2) #0 comdat personality ptr @__gxx_personality_v0 {
  %4 = alloca ptr, align 8
  %5 = alloca ptr, align 8
  %6 = alloca ptr, align 8
  %7 = alloca i1, align 1
  %8 = alloca ptr, align 8
  %9 = alloca i32, align 4
  store ptr %0, ptr %4, align 8
  store ptr %1, ptr %5, align 8
  store ptr %2, ptr %6, align 8
  store i1 false, ptr %7, align 1
  %10 = load ptr, ptr %5, align 8
  call void @_ZNSt7__cxx1112basic_stringIcSt11char_traitsIcESaIcEEC1ERKS4_(ptr noundef nonnull align 8 dereferenceable(32) %0, ptr noundef nonnull align 8 dereferenceable(32) %10)
  %11 = load ptr, ptr %6, align 8
  %12 = invoke noundef nonnull align 8 dereferenceable(32) ptr @_ZNSt7__cxx1112basic_stringIcSt11char_traitsIcESaIcEE6appendERKS4_(ptr noundef nonnull align 8 dereferenceable(32) %0, ptr noundef nonnull align 8 dereferenceable(32) %11)
          to label %13 unwind label %15

13:                                               ; preds = %3
  store i1 true, ptr %7, align 1
  %14 = load i1, ptr %7, align 1
  br i1 %14, label %20, label %19

15:                                               ; preds = %3
  %16 = landingpad { ptr, i32 }
          cleanup
  %17 = extractvalue { ptr, i32 } %16, 0
  store ptr %17, ptr %8, align 8
  %18 = extractvalue { ptr, i32 } %16, 1
  store i32 %18, ptr %9, align 4
  call void @_ZNSt7__cxx1112basic_stringIcSt11char_traitsIcESaIcEED1Ev(ptr noundef nonnull align 8 dereferenceable(32) %0) #5
  br label %21

19:                                               ; preds = %13
  call void @_ZNSt7__cxx1112basic_stringIcSt11char_traitsIcESaIcEED1Ev(ptr noundef nonnull align 8 dereferenceable(32) %0) #5
  br label %20

20:                                               ; preds = %19, %13
  ret void

21:                                               ; preds = %15
  %22 = load ptr, ptr %8, align 8
  %23 = load i32, ptr %9, align 4
  %24 = insertvalue { ptr, i32 } poison, ptr %22, 0
  %25 = insertvalue { ptr, i32 } %24, i32 %23, 1
  resume { ptr, i32 } %25
}

; Function Attrs: mustprogress nounwind uwtable
define linkonce_odr noundef nonnull align 8 dereferenceable(56) ptr @_ZNKSt6vectorIN5faiss14OperatingPointESaIS1_EEixEm(ptr noundef nonnull align 8 dereferenceable(24) %0, i64 noundef %1) #1 comdat align 2 {
  %3 = alloca ptr, align 8
  %4 = alloca i64, align 8
  store ptr %0, ptr %3, align 8
  store i64 %1, ptr %4, align 8
  %5 = load ptr, ptr %3, align 8
  %6 = getelementptr inbounds %"struct.std::_Vector_base.9", ptr %5, i32 0, i32 0
  %7 = getelementptr inbounds %"struct.std::_Vector_base<faiss::OperatingPoint, std::allocator<faiss::OperatingPoint>>::_Vector_impl_data", ptr %6, i32 0, i32 0
  %8 = load ptr, ptr %7, align 8
  %9 = load i64, ptr %4, align 8
  %10 = getelementptr inbounds %"struct.faiss::OperatingPoint", ptr %8, i64 %9
  ret ptr %10
}

; Function Attrs: mustprogress nounwind uwtable
define linkonce_odr noundef i64 @_ZNKSt6vectorIN5faiss14OperatingPointESaIS1_EE4sizeEv(ptr noundef nonnull align 8 dereferenceable(24) %0) #1 comdat align 2 {
  %2 = alloca ptr, align 8
  store ptr %0, ptr %2, align 8
  %3 = load ptr, ptr %2, align 8
  %4 = getelementptr inbounds %"struct.std::_Vector_base.9", ptr %3, i32 0, i32 0
  %5 = getelementptr inbounds %"struct.std::_Vector_base<faiss::OperatingPoint, std::allocator<faiss::OperatingPoint>>::_Vector_impl_data", ptr %4, i32 0, i32 1
  %6 = load ptr, ptr %5, align 8
  %7 = getelementptr inbounds %"struct.std::_Vector_base.9", ptr %3, i32 0, i32 0
  %8 = getelementptr inbounds %"struct.std::_Vector_base<faiss::OperatingPoint, std::allocator<faiss::OperatingPoint>>::_Vector_impl_data", ptr %7, i32 0, i32 0
  %9 = load ptr, ptr %8, align 8
  %10 = ptrtoint ptr %6 to i64
  %11 = ptrtoint ptr %9 to i64
  %12 = sub i64 %10, %11
  %13 = sdiv exact i64 %12, 56
  ret i64 %13
}

; Function Attrs: mustprogress uwtable
define noundef i32 @_ZN5faiss15OperatingPoints10merge_withERKS0_RKNSt7__cxx1112basic_stringIcSt11char_traitsIcESaIcEEE(ptr noundef nonnull align 8 dereferenceable(48) %0, ptr noundef nonnull align 8 dereferenceable(48) %1, ptr noundef nonnull align 8 dereferenceable(32) %2) #0 align 2 personality ptr @__gxx_personality_v0 {
  %4 = alloca ptr, align 8
  %5 = alloca ptr, align 8
  %6 = alloca ptr, align 8
  %7 = alloca i32, align 4
  %8 = alloca i32, align 4
  %9 = alloca ptr, align 8
  %10 = alloca %"class.std::__cxx11::basic_string", align 8
  %11 = alloca ptr, align 8
  %12 = alloca i32, align 4
  store ptr %0, ptr %4, align 8
  store ptr %1, ptr %5, align 8
  store ptr %2, ptr %6, align 8
  %13 = load ptr, ptr %4, align 8
  store i32 0, ptr %7, align 4
  store i32 0, ptr %8, align 4
  br label %14

14:                                               ; preds = %49, %3
  %15 = load i32, ptr %8, align 4
  %16 = sext i32 %15 to i64
  %17 = load ptr, ptr %5, align 8
  %18 = getelementptr inbounds %"struct.faiss::OperatingPoints", ptr %17, i32 0, i32 0
  %19 = call noundef i64 @_ZNKSt6vectorIN5faiss14OperatingPointESaIS1_EE4sizeEv(ptr noundef nonnull align 8 dereferenceable(24) %18) #5
  %20 = icmp ult i64 %16, %19
  br i1 %20, label %21, label %52

21:                                               ; preds = %14
  %22 = load ptr, ptr %5, align 8
  %23 = getelementptr inbounds %"struct.faiss::OperatingPoints", ptr %22, i32 0, i32 0
  %24 = load i32, ptr %8, align 4
  %25 = sext i32 %24 to i64
  %26 = call noundef nonnull align 8 dereferenceable(56) ptr @_ZNKSt6vectorIN5faiss14OperatingPointESaIS1_EEixEm(ptr noundef nonnull align 8 dereferenceable(24) %23, i64 noundef %25) #5
  store ptr %26, ptr %9, align 8
  %27 = load ptr, ptr %9, align 8
  %28 = getelementptr inbounds %"struct.faiss::OperatingPoint", ptr %27, i32 0, i32 0
  %29 = load double, ptr %28, align 8
  %30 = load ptr, ptr %9, align 8
  %31 = getelementptr inbounds %"struct.faiss::OperatingPoint", ptr %30, i32 0, i32 1
  %32 = load double, ptr %31, align 8
  %33 = load ptr, ptr %6, align 8
  %34 = load ptr, ptr %9, align 8
  %35 = getelementptr inbounds %"struct.faiss::OperatingPoint", ptr %34, i32 0, i32 2
  call void @_ZStplIcSt11char_traitsIcESaIcEENSt7__cxx1112basic_stringIT_T0_T1_EERKS8_SA_(ptr dead_on_unwind writable sret(%"class.std::__cxx11::basic_string") align 8 %10, ptr noundef nonnull align 8 dereferenceable(32) %33, ptr noundef nonnull align 8 dereferenceable(32) %35)
  %36 = load ptr, ptr %9, align 8
  %37 = getelementptr inbounds %"struct.faiss::OperatingPoint", ptr %36, i32 0, i32 3
  %38 = load i64, ptr %37, align 8
  %39 = invoke noundef zeroext i1 @_ZN5faiss15OperatingPoints3addEddRKNSt7__cxx1112basic_stringIcSt11char_traitsIcESaIcEEEm(ptr noundef nonnull align 8 dereferenceable(48) %13, double noundef %29, double noundef %32, ptr noundef nonnull align 8 dereferenceable(32) %10, i64 noundef %38)
          to label %40 unwind label %44

40:                                               ; preds = %21
  call void @_ZNSt7__cxx1112basic_stringIcSt11char_traitsIcESaIcEED1Ev(ptr noundef nonnull align 8 dereferenceable(32) %10) #5
  br i1 %39, label %41, label %48

41:                                               ; preds = %40
  %42 = load i32, ptr %7, align 4
  %43 = add nsw i32 %42, 1
  store i32 %43, ptr %7, align 4
  br label %48

44:                                               ; preds = %21
  %45 = landingpad { ptr, i32 }
          cleanup
  %46 = extractvalue { ptr, i32 } %45, 0
  store ptr %46, ptr %11, align 8
  %47 = extractvalue { ptr, i32 } %45, 1
  store i32 %47, ptr %12, align 4
  call void @_ZNSt7__cxx1112basic_stringIcSt11char_traitsIcESaIcEED1Ev(ptr noundef nonnull align 8 dereferenceable(32) %10) #5
  br label %54

48:                                               ; preds = %41, %40
  br label %49

49:                                               ; preds = %48
  %50 = load i32, ptr %8, align 4
  %51 = add nsw i32 %50, 1
  store i32 %51, ptr %8, align 4
  br label %14, !llvm.loop !23

52:                                               ; preds = %14
  %53 = load i32, ptr %7, align 4
  ret i32 %53

54:                                               ; preds = %44
  %55 = load ptr, ptr %11, align 8
  %56 = load i32, ptr %12, align 4
  %57 = insertvalue { ptr, i32 } poison, ptr %55, 0
  %58 = insertvalue { ptr, i32 } %57, i32 %56, 1
  resume { ptr, i32 } %58
}