; Function Attrs: mustprogress uwtable
define noundef i32 @_ZN5faiss15OperatingPoints10merge_withERKS0_RKNSt7__cxx1112basic_stringIcSt11char_traitsIcESaIcEEE(ptr noundef nonnull align 8 dereferenceable(48) %0, ptr nocapture noundef nonnull readonly align 8 dereferenceable(48) %1, ptr noundef nonnull align 8 dereferenceable(32) %2) local_unnamed_addr #0 align 2 personality ptr @__gxx_personality_v0 {
  %4 = alloca %"class.std::__cxx11::basic_string", align 8
  %5 = getelementptr inbounds i8, ptr %1, i64 8
  %6 = load ptr, ptr %5, align 8
  %7 = load ptr, ptr %1, align 8
  %.not = icmp eq ptr %6, %7
  br i1 %.not, label %._crit_edge, label %.lr.ph

.lr.ph:                                           ; preds = %3, %20
  %indvars.iv = phi i64 [ %indvars.iv.next, %20 ], [ 0, %3 ]
  %8 = phi ptr [ %23, %20 ], [ %7, %3 ]
  %.019 = phi i32 [ %spec.select, %20 ], [ 0, %3 ]
  %9 = getelementptr inbounds %"struct.faiss::OperatingPoint", ptr %8, i64 %indvars.iv
  %10 = load double, ptr %9, align 8
  %11 = getelementptr inbounds i8, ptr %9, i64 8
  %12 = load double, ptr %11, align 8
  %13 = getelementptr inbounds i8, ptr %9, i64 16
  call void @_ZNSt7__cxx1112basic_stringIcSt11char_traitsIcESaIcEEC1ERKS4_(ptr noundef nonnull align 8 dereferenceable(32) %4, ptr noundef nonnull align 8 dereferenceable(32) %2)
  %14 = invoke noundef nonnull align 8 dereferenceable(32) ptr @_ZNSt7__cxx1112basic_stringIcSt11char_traitsIcESaIcEE6appendERKS4_(ptr noundef nonnull align 8 dereferenceable(32) %4, ptr noundef nonnull align 8 dereferenceable(32) %13)
          to label %_ZStplIcSt11char_traitsIcESaIcEENSt7__cxx1112basic_stringIT_T0_T1_EERKS8_SA_.exit unwind label %15

common.resume:                                    ; preds = %29, %15
  %common.resume.op = phi { ptr, i32 } [ %16, %15 ], [ %30, %29 ]
  call void @_ZNSt7__cxx1112basic_stringIcSt11char_traitsIcESaIcEED1Ev(ptr noundef nonnull align 8 dereferenceable(32) %4) #14
  resume { ptr, i32 } %common.resume.op

15:                                               ; preds = %.lr.ph
  %16 = landingpad { ptr, i32 }
          cleanup
  br label %common.resume

_ZStplIcSt11char_traitsIcESaIcEENSt7__cxx1112basic_stringIT_T0_T1_EERKS8_SA_.exit: ; preds = %.lr.ph
  %17 = getelementptr inbounds i8, ptr %9, i64 48
  %18 = load i64, ptr %17, align 8
  %19 = invoke noundef zeroext i1 @_ZN5faiss15OperatingPoints3addEddRKNSt7__cxx1112basic_stringIcSt11char_traitsIcESaIcEEEm(ptr noundef nonnull align 8 dereferenceable(48) %0, double noundef %10, double noundef %12, ptr noundef nonnull align 8 dereferenceable(32) %4, i64 noundef %18)
          to label %20 unwind label %29

20:                                               ; preds = %_ZStplIcSt11char_traitsIcESaIcEENSt7__cxx1112basic_stringIT_T0_T1_EERKS8_SA_.exit
  call void @_ZNSt7__cxx1112basic_stringIcSt11char_traitsIcESaIcEED1Ev(ptr noundef nonnull align 8 dereferenceable(32) %4) #14
  %21 = zext i1 %19 to i32
  %spec.select = add nuw nsw i32 %.019, %21
  %indvars.iv.next = add nuw nsw i64 %indvars.iv, 1
  %22 = load ptr, ptr %5, align 8
  %23 = load ptr, ptr %1, align 8
  %24 = ptrtoint ptr %22 to i64
  %25 = ptrtoint ptr %23 to i64
  %26 = sub i64 %24, %25
  %27 = sdiv exact i64 %26, 56
  %28 = icmp ugt i64 %27, %indvars.iv.next
  br i1 %28, label %.lr.ph, label %._crit_edge, !llvm.loop !34

29:                                               ; preds = %_ZStplIcSt11char_traitsIcESaIcEENSt7__cxx1112basic_stringIT_T0_T1_EERKS8_SA_.exit
  %30 = landingpad { ptr, i32 }
          cleanup
  br label %common.resume

._crit_edge:                                      ; preds = %20, %3
  %.0.lcssa = phi i32 [ 0, %3 ], [ %spec.select, %20 ]
  ret i32 %.0.lcssa
}